target datalayout = "e-m:e-p270:32:32-p271:32:32-p272:64:64-i64:64-i128:128-f80:128-n8:16:32:64-S128"
target triple = "x86_64-pc-linux-gnu"

@hf_gtpv2_pres_rep_area_id = internal global i32 0, align 4
@dissect_gtpv2_pres_rep_area_action.flags = internal constant [3 x ptr] [ptr @hf_gtpv2_pres_rep_area_act_inapra, ptr @hf_gtpv2_pres_rep_area_action, ptr null], align 16

; Function Attrs: null_pointer_is_valid sspstrong uwtable
define internal void @dissect_gtpv2_pres_rep_area_action(ptr noundef %0, ptr noundef %1, ptr noundef %2, ptr noundef %3, i16 noundef zeroext %4, i8 noundef zeroext %5, i8 noundef zeroext %6, ptr noundef %7) #1 {
  %9 = alloca ptr, align 8
  %10 = alloca ptr, align 8
  %11 = alloca ptr, align 8
  %12 = alloca ptr, align 8
  %13 = alloca i16, align 2
  %14 = alloca i8, align 1
  %15 = alloca i8, align 1
  %16 = alloca ptr, align 8
  %17 = alloca i32, align 4
  %18 = alloca ptr, align 8
  %19 = alloca i32, align 4
  store ptr %0, ptr %9, align 8
  store ptr %1, ptr %10, align 8
  store ptr %2, ptr %11, align 8
  store ptr %3, ptr %12, align 8
  store i16 %4, ptr %13, align 2
  store i8 %5, ptr %14, align 1
  store i8 %6, ptr %15, align 1
  store ptr %7, ptr %16, align 8
  call void @llvm.lifetime.start.p0(i64 4, ptr %17) #11
  store i32 0, ptr %17, align 4
  call void @llvm.lifetime.start.p0(i64 8, ptr %18) #11
  %20 = load ptr, ptr %11, align 8
  %21 = load ptr, ptr %9, align 8
  %22 = load i32, ptr %17, align 4
  call void @proto_tree_add_bitmask_list(ptr noundef %20, ptr noundef %21, i32 noundef %22, i32 noundef 1, ptr noundef @dissect_gtpv2_pres_rep_area_action.flags, i32 noundef 0)
  %23 = load i32, ptr %17, align 4
  %24 = add i32 %23, 1
  store i32 %24, ptr %17, align 4
  %25 = load i16, ptr %13, align 2
  %26 = zext i16 %25 to i32
  %27 = icmp eq i32 %26, 1
  br i1 %27, label %28, label %29

28:                                               ; preds = %8
  store i32 1, ptr %19, align 4
  br label %52

29:                                               ; preds = %8
  %30 = load ptr, ptr %11, align 8
  %31 = load i32, ptr @hf_gtpv2_pres_rep_area_id, align 4
  %32 = load ptr, ptr %9, align 8
  %33 = load i32, ptr %17, align 4
  %34 = call ptr @proto_tree_add_item(ptr noundef %30, i32 noundef %31, ptr noundef %32, i32 noundef %33, i32 noundef 3, i32 noundef 0)
  %35 = load i32, ptr %17, align 4
  %36 = add i32 %35, 3
  store i32 %36, ptr %17, align 4
  %37 = load i16, ptr %13, align 2
  %38 = zext i16 %37 to i32
  %39 = icmp eq i32 %38, 4
  br i1 %39, label %40, label %41

40:                                               ; preds = %29
  store i32 1, ptr %19, align 4
  br label %52

41:                                               ; preds = %29
  %42 = load ptr, ptr %9, align 8
  %43 = load i32, ptr %17, align 4
  %44 = load i16, ptr %13, align 2
  %45 = zext i16 %44 to i32
  %46 = sub i32 %45, 4
  %47 = call ptr @tvb_new_subset_length(ptr noundef %42, i32 noundef %43, i32 noundef %46)
  store ptr %47, ptr %18, align 8
  %48 = load ptr, ptr %18, align 8
  %49 = load ptr, ptr %10, align 8
  %50 = load ptr, ptr %11, align 8
  %51 = call i32 @dissect_diameter_3gpp_presence_reporting_area_elements_list(ptr noundef %48, ptr noundef %49, ptr noundef %50, ptr noundef null)
  store i32 0, ptr %19, align 4
  br label %52

52:                                               ; preds = %41, %40, %28
  call void @llvm.lifetime.end.p0(i64 8, ptr %18) #11
  call void @llvm.lifetime.end.p0(i64 4, ptr %17) #11
  %53 = load i32, ptr %19, align 4
  switch i32 %53, label %55 [
    i32 0, label %54
    i32 1, label %54
  ]

54:                                               ; preds = %52, %52
  ret void

55:                                               ; preds = %52
  unreachable
}