; Function Attrs: null_pointer_is_valid sspstrong uwtable
define internal void @dissect_gtpv2_pres_rep_area_action(ptr noundef %0, ptr noundef %1, ptr noundef %2, ptr readnone captures(none) %3, i16 noundef zeroext %4, i8 zeroext %5, i8 zeroext %6, ptr readnone captures(none) %7) #1 {
  tail call void @proto_tree_add_bitmask_list(ptr noundef %2, ptr noundef %0, i32 noundef 0, i32 noundef 1, ptr noundef nonnull @dissect_gtpv2_pres_rep_area_action.flags, i32 noundef 0)
  %9 = zext i16 %4 to i32
  %10 = icmp eq i16 %4, 1
  br i1 %10, label %19, label %11

11:                                               ; preds = %8
  %12 = load i32, ptr @hf_gtpv2_pres_rep_area_id, align 4
  %13 = tail call ptr @proto_tree_add_item(ptr noundef %2, i32 noundef %12, ptr noundef %0, i32 noundef 1, i32 noundef 3, i32 noundef 0)
  %14 = icmp eq i16 %4, 4
  br i1 %14, label %19, label %15

15:                                               ; preds = %11
  %16 = add nsw i32 %9, -4
  %17 = tail call ptr @tvb_new_subset_length(ptr noundef %0, i32 noundef 4, i32 noundef %16)
  %18 = tail call i32 @dissect_diameter_3gpp_presence_reporting_area_elements_list(ptr noundef %17, ptr noundef %1, ptr noundef %2, ptr poison)
  br label %19

19:                                               ; preds = %11, %8, %15
  ret void
}